target datalayout = "e-m:e-p270:32:32-p271:32:32-p272:64:64-i64:64-i128:128-f80:128-n8:16:32:64-S128"
target triple = "x86_64-pc-linux-gnu"

%"class.std::__cxx11::basic_string" = type { %"struct.std::__cxx11::basic_string<char>::_Alloc_hider", i64, %union.anon.0 }
%"struct.std::__cxx11::basic_string<char>::_Alloc_hider" = type { ptr }
%union.anon.0 = type { i64, [8 x i8] }
%"struct.vcpkg::msg::option_t" = type { i8 }
%"struct.vcpkg::StringView" = type { ptr, i64 }
%"struct.vcpkg::msg::value_t" = type { i8 }
%"struct.vcpkg::msg::MessageT.675" = type { i64 }
%"struct.vcpkg::LocalizedString" = type { %"class.std::__cxx11::basic_string" }
%"struct.vcpkg::msg::TagArg.671" = type { %"struct.vcpkg::StringView" }
%"struct.vcpkg::msg::TagArg.391" = type { %"struct.vcpkg::StringView" }
%"struct.vcpkg::ExpectedT.392" = type <{ %union.anon.393, i8, [7 x i8] }>
%union.anon.393 = type { %"struct.vcpkg::LocalizedString" }
%"struct.vcpkg::ExpectedHolder.394" = type { i8 }

@_ZN5vcpkg3msgL6optionE = internal constant %"struct.vcpkg::msg::option_t" undef, align 1
@.str.207 = private unnamed_addr constant [2 x i8] c"1\00", align 1
@.str.208 = private unnamed_addr constant [2 x i8] c"0\00", align 1
@.str.212 = private unnamed_addr constant [5 x i8] c"true\00", align 1
@_ZN5vcpkg3msgL5valueE = internal constant %"struct.vcpkg::msg::value_t" undef, align 1
@.str.286 = private unnamed_addr constant [3 x i8] c"on\00", align 1
@.str.287 = private unnamed_addr constant [4 x i8] c"off\00", align 1
@.str.288 = private unnamed_addr constant [6 x i8] c"false\00", align 1
@_ZN5vcpkg24msgUnknownBooleanSettingE = external global %"struct.vcpkg::msg::MessageT.675", align 8

; Function Attrs: mustprogress nounwind uwtable
define linkonce_odr dso_local void @_ZN5vcpkg15LocalizedStringC2EOS0_(ptr noundef nonnull align 8 dereferenceable(32) %0, ptr noundef nonnull align 8 dereferenceable(32) %1) unnamed_addr #4 comdat align 2 {
  %3 = alloca ptr, align 8
  %4 = alloca ptr, align 8
  store ptr %0, ptr %3, align 8
  store ptr %1, ptr %4, align 8
  %5 = load ptr, ptr %3, align 8
  %6 = getelementptr inbounds %"struct.vcpkg::LocalizedString", ptr %5, i32 0, i32 0
  %7 = load ptr, ptr %4, align 8
  %8 = getelementptr inbounds %"struct.vcpkg::LocalizedString", ptr %7, i32 0, i32 0
  call void @_ZNSt7__cxx1112basic_stringIcSt11char_traitsIcESaIcEEC1EOS4_(ptr noundef nonnull align 8 dereferenceable(32) %6, ptr noundef nonnull align 8 dereferenceable(32) %8) #8
  ret void
}

; Function Attrs: noreturn nounwind uwtable
define linkonce_odr hidden void @__clang_call_terminate(ptr noundef %0) #10 comdat {
  %2 = call ptr @__cxa_begin_catch(ptr %0) #8
  call void @_ZSt9terminatev() #21
  unreachable
}

; Function Attrs: mustprogress nounwind uwtable
define linkonce_odr dso_local void @_ZN5vcpkg14ExpectedHolderIbEC2IbTnNSt9enable_ifIXntsr3stdE9is_same_vIS1_NSt9remove_cvINSt16remove_referenceIT_E4typeEE4typeEEEiE4typeELi0EEEOS6_(ptr noundef nonnull align 1 dereferenceable(1) %0, ptr noundef nonnull align 1 dereferenceable(1) %1) unnamed_addr #4 comdat align 2 {
  %3 = alloca ptr, align 8
  %4 = alloca ptr, align 8
  store ptr %0, ptr %3, align 8
  store ptr %1, ptr %4, align 8
  %5 = load ptr, ptr %3, align 8
  %6 = getelementptr inbounds %"struct.vcpkg::ExpectedHolder.394", ptr %5, i32 0, i32 0
  %7 = load ptr, ptr %4, align 8
  %8 = load i8, ptr %7, align 1
  %9 = trunc i8 %8 to i1
  %10 = zext i1 %9 to i8
  store i8 %10, ptr %6, align 1
  ret void
}

; Function Attrs: mustprogress nounwind uwtable
define linkonce_odr dso_local void @_ZN5vcpkg15LocalizedStringD2Ev(ptr noundef nonnull align 8 dereferenceable(32) %0) unnamed_addr #4 comdat align 2 {
  %2 = alloca ptr, align 8
  store ptr %0, ptr %2, align 8
  %3 = load ptr, ptr %2, align 8
  %4 = getelementptr inbounds %"struct.vcpkg::LocalizedString", ptr %3, i32 0, i32 0
  call void @_ZNSt7__cxx1112basic_stringIcSt11char_traitsIcESaIcEED1Ev(ptr noundef nonnull align 8 dereferenceable(32) %4) #8
  ret void
}

; Function Attrs: mustprogress nounwind uwtable
define linkonce_odr dso_local void @_ZN5vcpkg9ExpectedTIbNS_15LocalizedStringEEC2IS1_TnNSt9enable_ifIXaasr3stdE16is_convertible_vIT_S1_Entsr3stdE9is_same_vINSt16remove_referenceIS5_E4typeEbEEiE4typeELi0ELi1EEEOS5_(ptr noundef nonnull align 8 dereferenceable(33) %0, ptr noundef nonnull align 8 dereferenceable(32) %1) unnamed_addr #4 comdat align 2 {
  %3 = alloca ptr, align 8
  %4 = alloca ptr, align 8
  store ptr %0, ptr %3, align 8
  store ptr %1, ptr %4, align 8
  %5 = load ptr, ptr %3, align 8
  %6 = getelementptr inbounds %"struct.vcpkg::ExpectedT.392", ptr %5, i32 0, i32 0
  %7 = load ptr, ptr %4, align 8
  call void @_ZN5vcpkg15LocalizedStringC2EOS0_(ptr noundef nonnull align 8 dereferenceable(32) %6, ptr noundef nonnull align 8 dereferenceable(32) %7) #8
  %8 = getelementptr inbounds %"struct.vcpkg::ExpectedT.392", ptr %5, i32 0, i32 1
  store i8 1, ptr %8, align 8
  ret void
}

; Function Attrs: mustprogress nounwind uwtable
define linkonce_odr dso_local { ptr, i64 } @_ZNK5vcpkg3msg7value_taSINS_10StringViewEEENS0_6TagArgIS1_NSt11conditionalIXsr3std16is_constructibleIS3_T_EE5valueES3_S6_E4typeEEERKS6_(ptr noundef nonnull align 1 dereferenceable(1) %0, ptr noundef nonnull align 8 dereferenceable(16) %1) #4 comdat align 2 {
  %3 = alloca %"struct.vcpkg::msg::TagArg.671", align 8
  %4 = alloca ptr, align 8
  %5 = alloca ptr, align 8
  store ptr %0, ptr %4, align 8
  store ptr %1, ptr %5, align 8
  %6 = getelementptr inbounds %"struct.vcpkg::msg::TagArg.671", ptr %3, i32 0, i32 0
  %7 = load ptr, ptr %5, align 8
  call void @llvm.memcpy.p0.p0.i64(ptr align 8 %6, ptr align 8 %7, i64 16, i1 false)
  %8 = getelementptr inbounds %"struct.vcpkg::msg::TagArg.671", ptr %3, i32 0, i32 0
  %9 = load { ptr, i64 }, ptr %8, align 8
  ret { ptr, i64 } %9
}

; Function Attrs: mustprogress nounwind uwtable
define linkonce_odr dso_local { ptr, i64 } @_ZNK5vcpkg3msg8option_taSINS_10StringViewEEENS0_6TagArgIS1_NSt11conditionalIXsr3std16is_constructibleIS3_T_EE5valueES3_S6_E4typeEEERKS6_(ptr noundef nonnull align 1 dereferenceable(1) %0, ptr noundef nonnull align 8 dereferenceable(16) %1) #4 comdat align 2 {
  %3 = alloca %"struct.vcpkg::msg::TagArg.391", align 8
  %4 = alloca ptr, align 8
  %5 = alloca ptr, align 8
  store ptr %0, ptr %4, align 8
  store ptr %1, ptr %5, align 8
  %6 = getelementptr inbounds %"struct.vcpkg::msg::TagArg.391", ptr %3, i32 0, i32 0
  %7 = load ptr, ptr %5, align 8
  call void @llvm.memcpy.p0.p0.i64(ptr align 8 %6, ptr align 8 %7, i64 16, i1 false)
  %8 = getelementptr inbounds %"struct.vcpkg::msg::TagArg.391", ptr %3, i32 0, i32 0
  %9 = load { ptr, i64 }, ptr %8, align 8
  ret { ptr, i64 } %9
}

; Function Attrs: mustprogress nounwind uwtable
define linkonce_odr dso_local void @_ZN5vcpkg9ExpectedTIbNS_15LocalizedStringEEC2IbTnNSt9enable_ifIXaasr3stdE16is_convertible_vIT_bEntsr3stdE9is_same_vINSt16remove_referenceIS5_E4typeES1_EEiE4typeELi0EEEOS5_(ptr noundef nonnull align 8 dereferenceable(33) %0, ptr noundef nonnull align 1 dereferenceable(1) %1) unnamed_addr #4 comdat align 2 personality ptr @__gxx_personality_v0 {
  %3 = alloca ptr, align 8
  %4 = alloca ptr, align 8
  store ptr %0, ptr %3, align 8
  store ptr %1, ptr %4, align 8
  %5 = load ptr, ptr %3, align 8
  %6 = getelementptr inbounds %"struct.vcpkg::ExpectedT.392", ptr %5, i32 0, i32 0
  %7 = load ptr, ptr %4, align 8
  invoke void @_ZN5vcpkg14ExpectedHolderIbEC2IbTnNSt9enable_ifIXntsr3stdE9is_same_vIS1_NSt9remove_cvINSt16remove_referenceIT_E4typeEE4typeEEEiE4typeELi0EEEOS6_(ptr noundef nonnull align 1 dereferenceable(1) %6, ptr noundef nonnull align 1 dereferenceable(1) %7)
          to label %8 unwind label %10

8:                                                ; preds = %2
  %9 = getelementptr inbounds %"struct.vcpkg::ExpectedT.392", ptr %5, i32 0, i32 1
  store i8 0, ptr %9, align 8
  ret void

10:                                               ; preds = %2
  %11 = landingpad { ptr, i32 }
          catch ptr null
  %12 = extractvalue { ptr, i32 } %11, 0
  call void @__clang_call_terminate(ptr %12) #21
  unreachable
}

; Function Attrs: mustprogress nounwind uwtable
define linkonce_odr dso_local void @_ZN5vcpkg10StringViewC2EPKc(ptr noundef nonnull align 8 dereferenceable(16) %0, ptr noundef %1) unnamed_addr #4 comdat align 2 {
  %3 = alloca ptr, align 8
  %4 = alloca ptr, align 8
  store ptr %0, ptr %3, align 8
  store ptr %1, ptr %4, align 8
  %5 = load ptr, ptr %3, align 8
  %6 = getelementptr inbounds %"struct.vcpkg::StringView", ptr %5, i32 0, i32 0
  %7 = load ptr, ptr %4, align 8
  store ptr %7, ptr %6, align 8
  %8 = getelementptr inbounds %"struct.vcpkg::StringView", ptr %5, i32 0, i32 1
  %9 = load ptr, ptr %4, align 8
  %10 = call i64 @strlen(ptr noundef %9) #23
  store i64 %10, ptr %8, align 8
  ret void
}

; Function Attrs: mustprogress uwtable
define internal void @_ZN5vcpkgL15from_cmake_boolENS_10StringViewES0_(ptr dead_on_unwind noalias writable sret(%"struct.vcpkg::ExpectedT.392") align 8 %0, ptr %1, i64 %2, ptr %3, i64 %4) #0 {
  %6 = alloca ptr, align 8
  %7 = alloca %"struct.vcpkg::StringView", align 8
  %8 = alloca %"struct.vcpkg::StringView", align 8
  %9 = alloca %"struct.vcpkg::StringView", align 8
  %10 = alloca %"struct.vcpkg::StringView", align 8
  %11 = alloca %"struct.vcpkg::StringView", align 8
  %12 = alloca %"struct.vcpkg::StringView", align 8
  %13 = alloca %"struct.vcpkg::StringView", align 8
  %14 = alloca %"struct.vcpkg::StringView", align 8
  %15 = alloca i8, align 1
  %16 = alloca %"struct.vcpkg::StringView", align 8
  %17 = alloca %"struct.vcpkg::StringView", align 8
  %18 = alloca %"struct.vcpkg::StringView", align 8
  %19 = alloca %"struct.vcpkg::StringView", align 8
  %20 = alloca %"struct.vcpkg::StringView", align 8
  %21 = alloca %"struct.vcpkg::StringView", align 8
  %22 = alloca i8, align 1
  %23 = alloca %"struct.vcpkg::LocalizedString", align 8
  %24 = alloca %"struct.vcpkg::msg::MessageT.675", align 8
  %25 = alloca %"struct.vcpkg::msg::TagArg.391", align 8
  %26 = alloca %"struct.vcpkg::msg::TagArg.671", align 8
  store ptr %0, ptr %6, align 8
  %27 = getelementptr inbounds { ptr, i64 }, ptr %7, i32 0, i32 0
  store ptr %1, ptr %27, align 8
  %28 = getelementptr inbounds { ptr, i64 }, ptr %7, i32 0, i32 1
  store i64 %2, ptr %28, align 8
  %29 = getelementptr inbounds { ptr, i64 }, ptr %8, i32 0, i32 0
  store ptr %3, ptr %29, align 8
  %30 = getelementptr inbounds { ptr, i64 }, ptr %8, i32 0, i32 1
  store i64 %4, ptr %30, align 8
  call void @llvm.memcpy.p0.p0.i64(ptr align 8 %9, ptr align 8 %7, i64 16, i1 false)
  call void @_ZN5vcpkg10StringViewC2EPKc(ptr noundef nonnull align 8 dereferenceable(16) %10, ptr noundef @.str.207) #8
  %31 = getelementptr inbounds { ptr, i64 }, ptr %9, i32 0, i32 0
  %32 = load ptr, ptr %31, align 8
  %33 = getelementptr inbounds { ptr, i64 }, ptr %9, i32 0, i32 1
  %34 = load i64, ptr %33, align 8
  %35 = getelementptr inbounds { ptr, i64 }, ptr %10, i32 0, i32 0
  %36 = load ptr, ptr %35, align 8
  %37 = getelementptr inbounds { ptr, i64 }, ptr %10, i32 0, i32 1
  %38 = load i64, ptr %37, align 8
  %39 = call noundef zeroext i1 @_ZN5vcpkgeqENS_10StringViewES0_(ptr %32, i64 %34, ptr %36, i64 %38) #8
  br i1 %39, label %60, label %40

40:                                               ; preds = %5
  call void @llvm.memcpy.p0.p0.i64(ptr align 8 %11, ptr align 8 %7, i64 16, i1 false)
  call void @_ZN5vcpkg10StringViewC2EPKc(ptr noundef nonnull align 8 dereferenceable(16) %12, ptr noundef @.str.286) #8
  %41 = getelementptr inbounds { ptr, i64 }, ptr %11, i32 0, i32 0
  %42 = load ptr, ptr %41, align 8
  %43 = getelementptr inbounds { ptr, i64 }, ptr %11, i32 0, i32 1
  %44 = load i64, ptr %43, align 8
  %45 = getelementptr inbounds { ptr, i64 }, ptr %12, i32 0, i32 0
  %46 = load ptr, ptr %45, align 8
  %47 = getelementptr inbounds { ptr, i64 }, ptr %12, i32 0, i32 1
  %48 = load i64, ptr %47, align 8
  %49 = call noundef zeroext i1 @_ZN5vcpkg7Strings29case_insensitive_ascii_equalsENS_10StringViewES1_(ptr %42, i64 %44, ptr %46, i64 %48)
  br i1 %49, label %60, label %50

50:                                               ; preds = %40
  call void @llvm.memcpy.p0.p0.i64(ptr align 8 %13, ptr align 8 %7, i64 16, i1 false)
  call void @_ZN5vcpkg10StringViewC2EPKc(ptr noundef nonnull align 8 dereferenceable(16) %14, ptr noundef @.str.212) #8
  %51 = getelementptr inbounds { ptr, i64 }, ptr %13, i32 0, i32 0
  %52 = load ptr, ptr %51, align 8
  %53 = getelementptr inbounds { ptr, i64 }, ptr %13, i32 0, i32 1
  %54 = load i64, ptr %53, align 8
  %55 = getelementptr inbounds { ptr, i64 }, ptr %14, i32 0, i32 0
  %56 = load ptr, ptr %55, align 8
  %57 = getelementptr inbounds { ptr, i64 }, ptr %14, i32 0, i32 1
  %58 = load i64, ptr %57, align 8
  %59 = call noundef zeroext i1 @_ZN5vcpkg7Strings29case_insensitive_ascii_equalsENS_10StringViewES1_(ptr %52, i64 %54, ptr %56, i64 %58)
  br i1 %59, label %60, label %61

60:                                               ; preds = %50, %40, %5
  store i8 1, ptr %15, align 1
  call void @_ZN5vcpkg9ExpectedTIbNS_15LocalizedStringEEC2IbTnNSt9enable_ifIXaasr3stdE16is_convertible_vIT_bEntsr3stdE9is_same_vINSt16remove_referenceIS5_E4typeES1_EEiE4typeELi0EEEOS5_(ptr noundef nonnull align 8 dereferenceable(33) %0, ptr noundef nonnull align 1 dereferenceable(1) %15) #8
  br label %115

61:                                               ; preds = %50
  call void @llvm.memcpy.p0.p0.i64(ptr align 8 %16, ptr align 8 %7, i64 16, i1 false)
  call void @_ZN5vcpkg10StringViewC2EPKc(ptr noundef nonnull align 8 dereferenceable(16) %17, ptr noundef @.str.208) #8
  %62 = getelementptr inbounds { ptr, i64 }, ptr %16, i32 0, i32 0
  %63 = load ptr, ptr %62, align 8
  %64 = getelementptr inbounds { ptr, i64 }, ptr %16, i32 0, i32 1
  %65 = load i64, ptr %64, align 8
  %66 = getelementptr inbounds { ptr, i64 }, ptr %17, i32 0, i32 0
  %67 = load ptr, ptr %66, align 8
  %68 = getelementptr inbounds { ptr, i64 }, ptr %17, i32 0, i32 1
  %69 = load i64, ptr %68, align 8
  %70 = call noundef zeroext i1 @_ZN5vcpkgeqENS_10StringViewES0_(ptr %63, i64 %65, ptr %67, i64 %69) #8
  br i1 %70, label %91, label %71

71:                                               ; preds = %61
  call void @llvm.memcpy.p0.p0.i64(ptr align 8 %18, ptr align 8 %7, i64 16, i1 false)
  call void @_ZN5vcpkg10StringViewC2EPKc(ptr noundef nonnull align 8 dereferenceable(16) %19, ptr noundef @.str.287) #8
  %72 = getelementptr inbounds { ptr, i64 }, ptr %18, i32 0, i32 0
  %73 = load ptr, ptr %72, align 8
  %74 = getelementptr inbounds { ptr, i64 }, ptr %18, i32 0, i32 1
  %75 = load i64, ptr %74, align 8
  %76 = getelementptr inbounds { ptr, i64 }, ptr %19, i32 0, i32 0
  %77 = load ptr, ptr %76, align 8
  %78 = getelementptr inbounds { ptr, i64 }, ptr %19, i32 0, i32 1
  %79 = load i64, ptr %78, align 8
  %80 = call noundef zeroext i1 @_ZN5vcpkg7Strings29case_insensitive_ascii_equalsENS_10StringViewES1_(ptr %73, i64 %75, ptr %77, i64 %79)
  br i1 %80, label %91, label %81

81:                                               ; preds = %71
  call void @llvm.memcpy.p0.p0.i64(ptr align 8 %20, ptr align 8 %7, i64 16, i1 false)
  call void @_ZN5vcpkg10StringViewC2EPKc(ptr noundef nonnull align 8 dereferenceable(16) %21, ptr noundef @.str.288) #8
  %82 = getelementptr inbounds { ptr, i64 }, ptr %20, i32 0, i32 0
  %83 = load ptr, ptr %82, align 8
  %84 = getelementptr inbounds { ptr, i64 }, ptr %20, i32 0, i32 1
  %85 = load i64, ptr %84, align 8
  %86 = getelementptr inbounds { ptr, i64 }, ptr %21, i32 0, i32 0
  %87 = load ptr, ptr %86, align 8
  %88 = getelementptr inbounds { ptr, i64 }, ptr %21, i32 0, i32 1
  %89 = load i64, ptr %88, align 8
  %90 = call noundef zeroext i1 @_ZN5vcpkg7Strings29case_insensitive_ascii_equalsENS_10StringViewES1_(ptr %83, i64 %85, ptr %87, i64 %89)
  br i1 %90, label %91, label %92

91:                                               ; preds = %81, %71, %61
  store i8 0, ptr %22, align 1
  call void @_ZN5vcpkg9ExpectedTIbNS_15LocalizedStringEEC2IbTnNSt9enable_ifIXaasr3stdE16is_convertible_vIT_bEntsr3stdE9is_same_vINSt16remove_referenceIS5_E4typeES1_EEiE4typeELi0EEEOS5_(ptr noundef nonnull align 8 dereferenceable(33) %0, ptr noundef nonnull align 1 dereferenceable(1) %22) #8
  br label %115

92:                                               ; preds = %81
  call void @llvm.memcpy.p0.p0.i64(ptr align 8 %24, ptr align 8 @_ZN5vcpkg24msgUnknownBooleanSettingE, i64 8, i1 false)
  %93 = call { ptr, i64 } @_ZNK5vcpkg3msg8option_taSINS_10StringViewEEENS0_6TagArgIS1_NSt11conditionalIXsr3std16is_constructibleIS3_T_EE5valueES3_S6_E4typeEEERKS6_(ptr noundef nonnull align 1 dereferenceable(1) @_ZN5vcpkg3msgL6optionE, ptr noundef nonnull align 8 dereferenceable(16) %8) #8
  %94 = getelementptr inbounds %"struct.vcpkg::msg::TagArg.391", ptr %25, i32 0, i32 0
  %95 = getelementptr inbounds { ptr, i64 }, ptr %94, i32 0, i32 0
  %96 = extractvalue { ptr, i64 } %93, 0
  store ptr %96, ptr %95, align 8
  %97 = getelementptr inbounds { ptr, i64 }, ptr %94, i32 0, i32 1
  %98 = extractvalue { ptr, i64 } %93, 1
  store i64 %98, ptr %97, align 8
  %99 = call { ptr, i64 } @_ZNK5vcpkg3msg7value_taSINS_10StringViewEEENS0_6TagArgIS1_NSt11conditionalIXsr3std16is_constructibleIS3_T_EE5valueES3_S6_E4typeEEERKS6_(ptr noundef nonnull align 1 dereferenceable(1) @_ZN5vcpkg3msgL5valueE, ptr noundef nonnull align 8 dereferenceable(16) %7) #8
  %100 = getelementptr inbounds %"struct.vcpkg::msg::TagArg.671", ptr %26, i32 0, i32 0
  %101 = getelementptr inbounds { ptr, i64 }, ptr %100, i32 0, i32 0
  %102 = extractvalue { ptr, i64 } %99, 0
  store ptr %102, ptr %101, align 8
  %103 = getelementptr inbounds { ptr, i64 }, ptr %100, i32 0, i32 1
  %104 = extractvalue { ptr, i64 } %99, 1
  store i64 %104, ptr %103, align 8
  %105 = getelementptr inbounds %"struct.vcpkg::msg::MessageT.675", ptr %24, i32 0, i32 0
  %106 = load i64, ptr %105, align 8
  %107 = getelementptr inbounds { ptr, i64 }, ptr %25, i32 0, i32 0
  %108 = load ptr, ptr %107, align 8
  %109 = getelementptr inbounds { ptr, i64 }, ptr %25, i32 0, i32 1
  %110 = load i64, ptr %109, align 8
  %111 = getelementptr inbounds { ptr, i64 }, ptr %26, i32 0, i32 0
  %112 = load ptr, ptr %111, align 8
  %113 = getelementptr inbounds { ptr, i64 }, ptr %26, i32 0, i32 1
  %114 = load i64, ptr %113, align 8
  call void @_ZN5vcpkg3msg6formatIJNS0_8option_tENS0_7value_tEEJNS_10StringViewES4_EEENS_15LocalizedStringENS0_8MessageTIJDpT_EEEDpNS0_6TagArgINS_8identityIS7_E4typeET0_EE(ptr dead_on_unwind writable sret(%"struct.vcpkg::LocalizedString") align 8 %23, i64 %106, ptr %108, i64 %110, ptr %112, i64 %114)
  call void @_ZN5vcpkg9ExpectedTIbNS_15LocalizedStringEEC2IS1_TnNSt9enable_ifIXaasr3stdE16is_convertible_vIT_S1_Entsr3stdE9is_same_vINSt16remove_referenceIS5_E4typeEbEEiE4typeELi0ELi1EEEOS5_(ptr noundef nonnull align 8 dereferenceable(33) %0, ptr noundef nonnull align 8 dereferenceable(32) %23) #8
  call void @_ZN5vcpkg15LocalizedStringD2Ev(ptr noundef nonnull align 8 dereferenceable(32) %23) #8
  br label %115

115:                                              ; preds = %92, %91, %60
  ret void
}