; Function Attrs: mustprogress uwtable
define internal fastcc void @_ZN5vcpkgL15from_cmake_boolENS_10StringViewES0_(ptr dead_on_unwind noalias writable align 8 %0, ptr %1, i64 %2, ptr %3, i64 %4) unnamed_addr #2 personality ptr @__gxx_personality_v0 {
  %6 = alloca %"struct.vcpkg::LocalizedString", align 8
  %7 = tail call noundef zeroext i1 @_ZN5vcpkgeqENS_10StringViewES0_(ptr %1, i64 %2, ptr nonnull @.str.207, i64 1) #25
  br i1 %7, label %12, label %8

8:                                                ; preds = %5
  %9 = tail call noundef zeroext i1 @_ZN5vcpkg7Strings29case_insensitive_ascii_equalsENS_10StringViewES1_(ptr %1, i64 %2, ptr nonnull @.str.286, i64 2)
  br i1 %9, label %12, label %10

10:                                               ; preds = %8
  %11 = tail call noundef zeroext i1 @_ZN5vcpkg7Strings29case_insensitive_ascii_equalsENS_10StringViewES1_(ptr %1, i64 %2, ptr nonnull @.str.212, i64 4)
  br i1 %11, label %12, label %14

12:                                               ; preds = %10, %8, %5
  store i8 1, ptr %0, align 8
  %13 = getelementptr inbounds i8, ptr %0, i64 32
  store i8 0, ptr %13, align 8
  br label %24

14:                                               ; preds = %10
  %15 = tail call noundef zeroext i1 @_ZN5vcpkgeqENS_10StringViewES0_(ptr %1, i64 %2, ptr nonnull @.str.208, i64 1) #25
  br i1 %15, label %20, label %16

16:                                               ; preds = %14
  %17 = tail call noundef zeroext i1 @_ZN5vcpkg7Strings29case_insensitive_ascii_equalsENS_10StringViewES1_(ptr %1, i64 %2, ptr nonnull @.str.287, i64 3)
  br i1 %17, label %20, label %18

18:                                               ; preds = %16
  %19 = tail call noundef zeroext i1 @_ZN5vcpkg7Strings29case_insensitive_ascii_equalsENS_10StringViewES1_(ptr %1, i64 %2, ptr nonnull @.str.288, i64 5)
  br i1 %19, label %20, label %22

20:                                               ; preds = %18, %16, %14
  store i8 0, ptr %0, align 8
  %21 = getelementptr inbounds i8, ptr %0, i64 32
  store i8 0, ptr %21, align 8
  br label %24

22:                                               ; preds = %18
  %.sroa.03.0.copyload = load i64, ptr @_ZN5vcpkg24msgUnknownBooleanSettingE, align 8
  call void @_ZN5vcpkg3msg6formatIJNS0_8option_tENS0_7value_tEEJNS_10StringViewES4_EEENS_15LocalizedStringENS0_8MessageTIJDpT_EEEDpNS0_6TagArgINS_8identityIS7_E4typeET0_EE(ptr dead_on_unwind nonnull writable sret(%"struct.vcpkg::LocalizedString") align 8 %6, i64 %.sroa.03.0.copyload, ptr %3, i64 %4, ptr %1, i64 %2)
  call void @_ZNSt7__cxx1112basic_stringIcSt11char_traitsIcESaIcEEC1EOS4_(ptr noundef nonnull align 8 dereferenceable(32) %0, ptr noundef nonnull align 8 dereferenceable(32) %6) #25
  %23 = getelementptr inbounds i8, ptr %0, i64 32
  store i8 1, ptr %23, align 8
  call void @_ZNSt7__cxx1112basic_stringIcSt11char_traitsIcESaIcEED1Ev(ptr noundef nonnull align 8 dereferenceable(32) %6) #25
  br label %24

24:                                               ; preds = %22, %20, %12
  ret void
}